target datalayout = "e-m:e-p270:32:32-p271:32:32-p272:64:64-i64:64-i128:128-f80:128-n8:16:32:64-S128"
target triple = "x86_64-pc-linux-gnu"

%"class.draco::MetadataDecoder" = type { ptr }

; Function Attrs: mustprogress uwtable
define noundef zeroext i1 @_ZN5draco15MetadataDecoder14DecodeMetadataEPNS_13DecoderBufferEPNS_8MetadataE(ptr noundef nonnull align 8 dereferenceable(8) %0, ptr noundef %1, ptr noundef %2) #5 align 2 {
  %4 = alloca i1, align 1
  %5 = alloca ptr, align 8
  %6 = alloca ptr, align 8
  %7 = alloca ptr, align 8
  store ptr %0, ptr %5, align 8, !tbaa !3
  store ptr %1, ptr %6, align 8, !tbaa !11
  store ptr %2, ptr %7, align 8, !tbaa !12
  %8 = load ptr, ptr %5, align 8
  %9 = load ptr, ptr %7, align 8, !tbaa !12
  %10 = icmp ne ptr %9, null
  br i1 %10, label %12, label %11

11:                                               ; preds = %3
  store i1 false, ptr %4, align 1
  br label %17

12:                                               ; preds = %3
  %13 = load ptr, ptr %6, align 8, !tbaa !11
  %14 = getelementptr inbounds nuw %"class.draco::MetadataDecoder", ptr %8, i32 0, i32 0
  store ptr %13, ptr %14, align 8, !tbaa !8
  %15 = load ptr, ptr %7, align 8, !tbaa !12
  %16 = call noundef zeroext i1 @_ZN5draco15MetadataDecoder14DecodeMetadataEPNS_8MetadataE(ptr noundef nonnull align 8 dereferenceable(8) %8, ptr noundef %15)
  store i1 %16, ptr %4, align 1
  br label %17

17:                                               ; preds = %12, %11
  %18 = load i1, ptr %4, align 1
  ret i1 %18
}