; Function Attrs: mustprogress uwtable
define noundef zeroext i1 @_ZN5draco15MetadataDecoder14DecodeMetadataEPNS_13DecoderBufferEPNS_8MetadataE(ptr noundef nonnull align 8 captures(none) dereferenceable(8) %0, ptr noundef %1, ptr noundef %2) local_unnamed_addr #4 align 2 {
  %.not = icmp eq ptr %2, null
  br i1 %.not, label %6, label %4

4:                                                ; preds = %3
  store ptr %1, ptr %0, align 8, !tbaa !3
  %5 = tail call noundef zeroext i1 @_ZN5draco15MetadataDecoder14DecodeMetadataEPNS_8MetadataE(ptr noundef nonnull align 8 dereferenceable(8) %0, ptr noundef nonnull %2)
  br label %6

6:                                                ; preds = %3, %4
  %.0 = phi i1 [ %5, %4 ], [ false, %3 ]
  ret i1 %.0
}